target datalayout = "e-m:e-p270:32:32-p271:32:32-p272:64:64-i64:64-i128:128-f80:128-n8:16:32:64-S128"
target triple = "x86_64-pc-linux-gnu"

%struct.ForEachState = type { ptr, i32 }
%struct.List = type { i32, i32, i32, ptr, [0 x %union.ListCell] }
%union.ListCell = type { ptr }
%struct.DefElem = type { i32, ptr, ptr, ptr, i32, i32 }
%struct.StringInfoData = type { ptr, i32, i32, i32 }
%struct.Node = type { i32 }

@.str.27 = private unnamed_addr constant [6 x i8] c"%s = \00", align 1
@.str.28 = private unnamed_addr constant [3 x i8] c", \00", align 1

; Function Attrs: inlinehint nounwind uwtable
define internal ptr @lnext(ptr noundef %0, ptr noundef %1) #5 {
  %3 = alloca ptr, align 8
  %4 = alloca ptr, align 8
  %5 = alloca ptr, align 8
  store ptr %0, ptr %4, align 8
  store ptr %1, ptr %5, align 8
  %6 = load ptr, ptr %5, align 8
  %7 = getelementptr inbounds nuw %union.ListCell, ptr %6, i32 1
  store ptr %7, ptr %5, align 8
  %8 = load ptr, ptr %5, align 8
  %9 = load ptr, ptr %4, align 8
  %10 = getelementptr inbounds nuw %struct.List, ptr %9, i32 0, i32 3
  %11 = load ptr, ptr %10, align 8
  %12 = load ptr, ptr %4, align 8
  %13 = getelementptr inbounds nuw %struct.List, ptr %12, i32 0, i32 1
  %14 = load i32, ptr %13, align 4
  %15 = sext i32 %14 to i64
  %16 = getelementptr inbounds %union.ListCell, ptr %11, i64 %15
  %17 = icmp ult ptr %8, %16
  br i1 %17, label %18, label %20

18:                                               ; preds = %2
  %19 = load ptr, ptr %5, align 8
  store ptr %19, ptr %3, align 8
  br label %21

20:                                               ; preds = %2
  store ptr null, ptr %3, align 8
  br label %21

21:                                               ; preds = %20, %18
  %22 = load ptr, ptr %3, align 8
  ret ptr %22
}

; Function Attrs: nounwind uwtable
define dso_local ptr @serialize_deflist(ptr noundef %0) #0 {
  %2 = alloca ptr, align 8
  %3 = alloca ptr, align 8
  %4 = alloca %struct.StringInfoData, align 8
  %5 = alloca ptr, align 8
  %6 = alloca %struct.ForEachState, align 8
  %7 = alloca ptr, align 8
  %8 = alloca ptr, align 8
  %9 = alloca i8, align 1
  store ptr %0, ptr %2, align 8
  call void @llvm.lifetime.start.p0(i64 8, ptr %3) #10
  call void @llvm.lifetime.start.p0(i64 24, ptr %4) #10
  call void @llvm.lifetime.start.p0(i64 8, ptr %5) #10
  call void @initStringInfo(ptr noundef %4)
  call void @llvm.lifetime.start.p0(i64 16, ptr %6) #10
  %10 = getelementptr inbounds nuw %struct.ForEachState, ptr %6, i32 0, i32 0
  %11 = load ptr, ptr %2, align 8
  store ptr %11, ptr %10, align 8
  %12 = getelementptr inbounds nuw %struct.ForEachState, ptr %6, i32 0, i32 1
  store i32 0, ptr %12, align 8
  %13 = getelementptr i8, ptr %6, i64 12
  call void @llvm.memset.p0.i64(ptr align 4 %13, i8 0, i64 4, i1 false)
  br label %14

14:                                               ; preds = %97, %1
  %15 = getelementptr inbounds nuw %struct.ForEachState, ptr %6, i32 0, i32 0
  %16 = load ptr, ptr %15, align 8
  %17 = icmp ne ptr %16, null
  br i1 %17, label %18, label %35

18:                                               ; preds = %14
  %19 = getelementptr inbounds nuw %struct.ForEachState, ptr %6, i32 0, i32 1
  %20 = load i32, ptr %19, align 8
  %21 = getelementptr inbounds nuw %struct.ForEachState, ptr %6, i32 0, i32 0
  %22 = load ptr, ptr %21, align 8
  %23 = getelementptr inbounds nuw %struct.List, ptr %22, i32 0, i32 1
  %24 = load i32, ptr %23, align 4
  %25 = icmp slt i32 %20, %24
  br i1 %25, label %26, label %35

26:                                               ; preds = %18
  %27 = getelementptr inbounds nuw %struct.ForEachState, ptr %6, i32 0, i32 0
  %28 = load ptr, ptr %27, align 8
  %29 = getelementptr inbounds nuw %struct.List, ptr %28, i32 0, i32 3
  %30 = load ptr, ptr %29, align 8
  %31 = getelementptr inbounds nuw %struct.ForEachState, ptr %6, i32 0, i32 1
  %32 = load i32, ptr %31, align 8
  %33 = sext i32 %32 to i64
  %34 = getelementptr inbounds %union.ListCell, ptr %30, i64 %33
  store ptr %34, ptr %5, align 8
  br label %36

35:                                               ; preds = %18, %14
  store ptr null, ptr %5, align 8
  br label %36

36:                                               ; preds = %35, %26
  %37 = phi i32 [ 1, %26 ], [ 0, %35 ]
  %38 = icmp ne i32 %37, 0
  br i1 %38, label %40, label %39

39:                                               ; preds = %36
  call void @llvm.lifetime.end.p0(i64 16, ptr %6) #10
  br label %101

40:                                               ; preds = %36
  call void @llvm.lifetime.start.p0(i64 8, ptr %7) #10
  %41 = load ptr, ptr %5, align 8
  %42 = load ptr, ptr %41, align 8
  store ptr %42, ptr %7, align 8
  call void @llvm.lifetime.start.p0(i64 8, ptr %8) #10
  %43 = load ptr, ptr %7, align 8
  %44 = call ptr @defGetString(ptr noundef %43)
  store ptr %44, ptr %8, align 8
  %45 = load ptr, ptr %7, align 8
  %46 = getelementptr inbounds nuw %struct.DefElem, ptr %45, i32 0, i32 2
  %47 = load ptr, ptr %46, align 8
  %48 = call ptr @quote_identifier(ptr noundef %47)
  call void (ptr, ptr, ...) @appendStringInfo(ptr noundef %4, ptr noundef @.str.27, ptr noundef %48)
  %49 = load ptr, ptr %7, align 8
  %50 = getelementptr inbounds nuw %struct.DefElem, ptr %49, i32 0, i32 3
  %51 = load ptr, ptr %50, align 8
  %52 = getelementptr inbounds nuw %struct.Node, ptr %51, i32 0, i32 0
  %53 = load i32, ptr %52, align 4
  %54 = icmp eq i32 %53, 464
  br i1 %54, label %62, label %55

55:                                               ; preds = %40
  %56 = load ptr, ptr %7, align 8
  %57 = getelementptr inbounds nuw %struct.DefElem, ptr %56, i32 0, i32 3
  %58 = load ptr, ptr %57, align 8
  %59 = getelementptr inbounds nuw %struct.Node, ptr %58, i32 0, i32 0
  %60 = load i32, ptr %59, align 4
  %61 = icmp eq i32 %60, 465
  br i1 %61, label %62, label %64

62:                                               ; preds = %55, %40
  %63 = load ptr, ptr %8, align 8
  call void @appendStringInfoString(ptr noundef %4, ptr noundef %63)
  br label %90

64:                                               ; preds = %55
  %65 = load ptr, ptr %8, align 8
  %66 = call ptr @strchr(ptr noundef %65, i32 noundef 92) #12
  %67 = icmp ne ptr %66, null
  br i1 %67, label %68, label %69

68:                                               ; preds = %64
  call void @appendStringInfoChar(ptr noundef %4, i8 noundef signext 69)
  br label %69

69:                                               ; preds = %68, %64
  call void @appendStringInfoChar(ptr noundef %4, i8 noundef signext 39)
  br label %70

70:                                               ; preds = %87, %69
  %71 = load ptr, ptr %8, align 8
  %72 = load i8, ptr %71, align 1
  %73 = icmp ne i8 %72, 0
  br i1 %73, label %74, label %89

74:                                               ; preds = %70
  call void @llvm.lifetime.start.p0(i64 1, ptr %9) #10
  %75 = load ptr, ptr %8, align 8
  %76 = getelementptr inbounds nuw i8, ptr %75, i32 1
  store ptr %76, ptr %8, align 8
  %77 = load i8, ptr %75, align 1
  store i8 %77, ptr %9, align 1
  %78 = load i8, ptr %9, align 1
  %79 = sext i8 %78 to i32
  %80 = icmp eq i32 %79, 39
  br i1 %80, label %85, label %81

81:                                               ; preds = %74
  %82 = load i8, ptr %9, align 1
  %83 = sext i8 %82 to i32
  %84 = icmp eq i32 %83, 92
  br i1 %84, label %85, label %87

85:                                               ; preds = %81, %74
  %86 = load i8, ptr %9, align 1
  call void @appendStringInfoChar(ptr noundef %4, i8 noundef signext %86)
  br label %87

87:                                               ; preds = %85, %81
  %88 = load i8, ptr %9, align 1
  call void @appendStringInfoChar(ptr noundef %4, i8 noundef signext %88)
  call void @llvm.lifetime.end.p0(i64 1, ptr %9) #10
  br label %70, !llvm.loop !9

89:                                               ; preds = %70
  call void @appendStringInfoChar(ptr noundef %4, i8 noundef signext 39)
  br label %90

90:                                               ; preds = %89, %62
  %91 = load ptr, ptr %2, align 8
  %92 = load ptr, ptr %5, align 8
  %93 = call ptr @lnext(ptr noundef %91, ptr noundef %92)
  %94 = icmp ne ptr %93, null
  br i1 %94, label %95, label %96

95:                                               ; preds = %90
  call void @appendStringInfoString(ptr noundef %4, ptr noundef @.str.28)
  br label %96

96:                                               ; preds = %95, %90
  call void @llvm.lifetime.end.p0(i64 8, ptr %8) #10
  call void @llvm.lifetime.end.p0(i64 8, ptr %7) #10
  br label %97

97:                                               ; preds = %96
  %98 = getelementptr inbounds nuw %struct.ForEachState, ptr %6, i32 0, i32 1
  %99 = load i32, ptr %98, align 8
  %100 = add i32 %99, 1
  store i32 %100, ptr %98, align 8
  br label %14, !llvm.loop !10

101:                                              ; preds = %39
  %102 = getelementptr inbounds nuw %struct.StringInfoData, ptr %4, i32 0, i32 0
  %103 = load ptr, ptr %102, align 8
  %104 = getelementptr inbounds nuw %struct.StringInfoData, ptr %4, i32 0, i32 1
  %105 = load i32, ptr %104, align 8
  %106 = call ptr @cstring_to_text_with_len(ptr noundef %103, i32 noundef %105)
  store ptr %106, ptr %3, align 8
  %107 = getelementptr inbounds nuw %struct.StringInfoData, ptr %4, i32 0, i32 0
  %108 = load ptr, ptr %107, align 8
  call void @pfree(ptr noundef %108)
  %109 = load ptr, ptr %3, align 8
  call void @llvm.lifetime.end.p0(i64 8, ptr %5) #10
  call void @llvm.lifetime.end.p0(i64 24, ptr %4) #10
  call void @llvm.lifetime.end.p0(i64 8, ptr %3) #10
  ret ptr %109
}