; Function Attrs: nounwind uwtable
define dso_local ptr @serialize_deflist(ptr noundef readonly captures(address_is_null) %0) local_unnamed_addr #0 {
  %2 = alloca %struct.StringInfoData, align 8
  call void @llvm.lifetime.start.p0(i64 24, ptr nonnull %2) #10
  call void @initStringInfo(ptr noundef nonnull %2) #10
  %3 = getelementptr i8, ptr %0, i64 4
  %.not = icmp eq ptr %0, null
  br i1 %.not, label %._crit_edge39, label %.lr.ph38

.lr.ph38:                                         ; preds = %1
  %4 = getelementptr i8, ptr %0, i64 16
  %5 = load i32, ptr %3, align 4
  %6 = icmp sgt i32 %5, 0
  br i1 %6, label %.lr.ph43, label %._crit_edge39

._crit_edge39:                                    ; preds = %39, %.lr.ph38, %1
  %7 = load ptr, ptr %2, align 8
  %8 = getelementptr inbounds nuw i8, ptr %2, i64 8
  %9 = load i32, ptr %8, align 8
  %10 = call ptr @cstring_to_text_with_len(ptr noundef %7, i32 noundef %9) #10
  %11 = load ptr, ptr %2, align 8
  call void @pfree(ptr noundef %11) #10
  call void @llvm.lifetime.end.p0(i64 24, ptr nonnull %2) #10
  ret ptr %10

.lr.ph43:                                         ; preds = %.lr.ph38, %39
  %indvars.iv42 = phi i64 [ %indvars.iv.next, %39 ], [ 0, %.lr.ph38 ]
  %12 = load ptr, ptr %4, align 8
  %13 = getelementptr inbounds nuw %union.ListCell, ptr %12, i64 %indvars.iv42
  %14 = load ptr, ptr %13, align 8
  %15 = call ptr @defGetString(ptr noundef %14) #10
  %16 = getelementptr inbounds nuw i8, ptr %14, i64 16
  %17 = load ptr, ptr %16, align 8
  %18 = call ptr @quote_identifier(ptr noundef %17) #10
  call void (ptr, ptr, ...) @appendStringInfo(ptr noundef nonnull %2, ptr noundef nonnull @.str.27, ptr noundef %18) #10
  %19 = getelementptr inbounds nuw i8, ptr %14, i64 24
  %20 = load ptr, ptr %19, align 8
  %21 = load i32, ptr %20, align 4
  %22 = and i32 %21, -2
  %switch = icmp eq i32 %22, 464
  br i1 %switch, label %23, label %24

23:                                               ; preds = %.lr.ph43
  call void @appendStringInfoString(ptr noundef nonnull %2, ptr noundef %15) #10
  br label %34

24:                                               ; preds = %.lr.ph43
  %25 = call ptr @strchr(ptr noundef nonnull dereferenceable(1) %15, i32 noundef 92) #12
  %.not27 = icmp eq ptr %25, null
  br i1 %.not27, label %27, label %26

26:                                               ; preds = %24
  call void @appendStringInfoChar(ptr noundef nonnull %2, i8 noundef signext 69) #10
  br label %27

27:                                               ; preds = %26, %24
  call void @appendStringInfoChar(ptr noundef nonnull %2, i8 noundef signext 39) #10
  %28 = load i8, ptr %15, align 1
  %.not2834 = icmp eq i8 %28, 0
  br i1 %.not2834, label %._crit_edge, label %.lr.ph

.lr.ph:                                           ; preds = %27, %32
  %29 = phi i8 [ %33, %32 ], [ %28, %27 ]
  %.02235 = phi ptr [ %30, %32 ], [ %15, %27 ]
  %30 = getelementptr inbounds nuw i8, ptr %.02235, i64 1
  switch i8 %29, label %32 [
    i8 92, label %31
    i8 39, label %31
  ]

31:                                               ; preds = %.lr.ph, %.lr.ph
  call void @appendStringInfoChar(ptr noundef nonnull %2, i8 noundef signext %29) #10
  br label %32

32:                                               ; preds = %.lr.ph, %31
  call void @appendStringInfoChar(ptr noundef nonnull %2, i8 noundef signext %29) #10
  %33 = load i8, ptr %30, align 1
  %.not28 = icmp eq i8 %33, 0
  br i1 %.not28, label %._crit_edge, label %.lr.ph, !llvm.loop !6

._crit_edge:                                      ; preds = %32, %27
  call void @appendStringInfoChar(ptr noundef nonnull %2, i8 noundef signext 39) #10
  br label %34

34:                                               ; preds = %._crit_edge, %23
  %.val = load i32, ptr %3, align 4
  %.val30 = load ptr, ptr %4, align 8
  %35 = getelementptr inbounds nuw i8, ptr %13, i64 8
  %36 = sext i32 %.val to i64
  %37 = getelementptr inbounds %union.ListCell, ptr %.val30, i64 %36
  %.not33 = icmp ult ptr %35, %37
  br i1 %.not33, label %38, label %39

38:                                               ; preds = %34
  call void @appendStringInfoString(ptr noundef nonnull %2, ptr noundef nonnull @.str.28) #10
  br label %39

39:                                               ; preds = %38, %34
  %indvars.iv.next = add nuw nsw i64 %indvars.iv42, 1
  %40 = load i32, ptr %3, align 4
  %41 = sext i32 %40 to i64
  %42 = icmp slt i64 %indvars.iv.next, %41
  br i1 %42, label %.lr.ph43, label %._crit_edge39
}